Certificate:
    Data:
        Version: 1 (0x0)
        Serial Number: 9028111838557985 (0x20130517213721)
        Signature Algorithm: sha1WithRSAEncryption
        Issuer: C = US, O = Procter and Gamble, OU = Intranet ASP, CN = k9p.na.pg.com
        Validity
            Not Before: May 17 21:37:21 2013 GMT
            Not After : Jan  1 00:00:01 2038 GMT
        Subject: C = US, O = Procter and Gamble, OU = Intranet ASP, CN = k9p.na.pg.com
        Subject Public Key Info:
            Public Key Algorithm: rsaEncryption
                RSA Public-Key: (2048 bit)
                Modulus:
                    00:ff:cd:08:7f:ac:ff:74:d6:da:66:6d:58:1d:2b:
                    4a:c4:79:51:19:49:b4:81:68:7c:d6:b1:a5:54:6c:
                    7d:82:b5:ab:f1:9b:dd:eb:8e:63:0e:5a:28:58:23:
                    8a:8c:c7:f1:cd:83:a0:ef:23:2e:2b:45:60:fa:3a:
                    19:48:86:0a:2e:1a:ac:95:a6:00:48:f8:91:1f:10:
                    c1:42:fc:cf:35:e9:9f:00:33:bd:dd:2b:69:28:e8:
                    82:c7:95:32:e0:6b:64:60:ff:ff:96:79:81:a2:8f:
                    f2:04:09:61:a1:cb:bc:1e:ff:90:e2:b5:bc:68:37:
                    96:78:f7:d3:05:c3:03:c5:88:e9:e8:bc:12:c7:f1:
                    ff:67:a1:e6:5e:20:05:b8:6d:27:7f:6b:36:38:c7:
                    48:3a:33:f4:28:c1:b7:89:2d:ff:38:1c:4d:1d:4a:
                    fb:73:2d:1b:4a:4c:f0:e4:e5:af:5a:e8:0a:bc:b9:
                    f2:4e:63:8e:a9:51:a8:bf:b5:39:4c:ae:d3:c4:75:
                    bc:19:d8:82:98:8f:04:d2:3d:38:21:73:64:36:63:
                    90:5e:ec:c1:41:c8:a1:3f:15:75:4a:b4:c3:a0:65:
                    c2:43:15:35:06:d3:21:14:d6:76:f1:63:74:74:f3:
                    bb:94:50:89:53:c1:a6:86:c0:28:bd:c3:b3:43:01:
                    76:e9
                Exponent: 65537 (0x10001)
    Signature Algorithm: sha1WithRSAEncryption
         ec:c9:c5:b0:f2:05:54:dc:97:7a:7d:2e:03:2a:90:34:9c:10:
         41:f8:9e:e6:78:f7:16:82:69:35:93:dc:9e:ba:f7:d4:09:be:
         90:3b:0d:89:03:f4:96:ba:a8:9c:40:7a:8e:4b:bb:1b:97:73:
         93:24:ef:1b:84:83:70:89:f7:ce:bf:93:6d:88:54:a5:6c:4a:
         54:c3:8a:a4:6f:af:ff:c5:21:db:0e:cb:3f:c7:fa:c3:88:3b:
         d6:07:02:bc:b8:f9:12:8e:a0:02:fd:1f:6b:ef:62:03:e8:34:
         c5:87:01:90:ba:07:02:43:aa:d7:06:05:9d:6b:e0:f3:7f:9a:
         2f:6c:57:bb:3a:d7:b3:c3:d1:e3:d8:e8:61:ab:c3:81:80:46:
         4f:c0:9c:9b:82:05:72:96:4a:35:47:14:05:1a:ea:3c:35:1e:
         62:e2:d9:8d:6a:d1:3d:dc:55:a1:80:54:93:78:32:41:7f:85:
         67:32:25:4e:ce:db:9b:c7:bf:51:84:9b:a7:85:04:f5:6c:60:
         43:47:bc:49:40:95:fd:7f:41:61:d0:d0:3e:86:62:c3:1a:39:
         0e:98:57:c6:18:58:f9:e2:d1:d0:5c:3c:b1:f7:2e:11:c3:47:
         e3:92:e8:c0:06:ff:35:af:d5:d7:14:80:ca:2f:a1:1f:8b:8f:
         ad:71:ad:47
-----BEGIN CERTIFICATE-----
MIIDLDCCAhQCByATBRchNyEwDQYJKoZIhvcNAQEFBQAwWTELMAkGA1UEBhMCVVMx
GzAZBgNVBAoTElByb2N0ZXIgYW5kIEdhbWJsZTEVMBMGA1UECxMMSW50cmFuZXQg
QVNQMRYwFAYDVQQDEw1rOXAubmEucGcuY29tMB4XDTEzMDUxNzIxMzcyMVoXDTM4
MDEwMTAwMDAwMVowWTELMAkGA1UEBhMCVVMxGzAZBgNVBAoTElByb2N0ZXIgYW5k
IEdhbWJsZTEVMBMGA1UECxMMSW50cmFuZXQgQVNQMRYwFAYDVQQDEw1rOXAubmEu
cGcuY29tMIIBIjANBgkqhkiG9w0BAQEFAAOCAQ8AMIIBCgKCAQEA/80If6z/dNba
Zm1YHStKxHlRGUm0gWh81rGlVGx9grWr8Zvd645jDlooWCOKjMfxzYOg7yMuK0Vg
+joZSIYKLhqslaYASPiRHxDBQvzPNemfADO93StpKOiCx5Uy4GtkYP//lnmBoo/y
BAlhocu8Hv+Q4rW8aDeWePfTBcMDxYjp6LwSx/H/Z6HmXiAFuG0nf2s2OMdIOjP0
KMG3iS3/OBxNHUr7cy0bSkzw5OWvWugKvLnyTmOOqVGov7U5TK7TxHW8GdiCmI8E
0j04IXNkNmOQXuzBQcihPxV1SrTDoGXCQxU1BtMhFNZ28WN0dPO7lFCJU8GmhsAo
vcOzQwF26QIDAQABMA0GCSqGSIb3DQEBBQUAA4IBAQDsycWw8gVU3Jd6fS4DKpA0
nBBB+J7mePcWgmk1k9yeuvfUCb6QOw2JA/SWuqicQHqOS7sbl3OTJO8bhINwiffO
v5NtiFSlbEpUw4qkb6//xSHbDss/x/rDiDvWBwK8uPkSjqAC/R9r72ID6DTFhwGQ
ugcCQ6rXBgWda+Dzf5ovbFe7Otezw9Hj2Ohhq8OBgEZPwJybggVylko1RxQFGuo8
NR5i4tmNatE93FWhgFSTeDJBf4VnMiVOztubx79RhJunhQT1bGBDR7xJQJX9f0Fh
0NA+hmLDGjkOmFfGGFj54tHQXDyx9y4Rw0fjkujABv81r9XXFIDKL6Efi4+tca1H
-----END CERTIFICATE-----
